target datalayout = "e-m:e-p270:32:32-p271:32:32-p272:64:64-i64:64-i128:128-f80:128-n8:16:32:64-S128"
target triple = "x86_64-pc-linux-gnu"

%"class.icu_77::UObject" = type { ptr }
%"class.icu_77::Calendar" = type <{ %"class.icu_77::UObject", [24 x i32], [24 x i8], i8, [7 x i8], double, ptr, i8, i16, i8, i32, i32, i32, i8, i8, i16, [4 x i8], ptr, ptr }>

; Function Attrs: mustprogress nounwind uwtable
define noundef signext i8 @_ZNK6icu_778Calendar9isLenientEv(ptr noundef nonnull align 8 dereferenceable(192) %0) #0 align 2 {
  %2 = alloca ptr, align 8
  store ptr %0, ptr %2, align 8, !tbaa !37
  %3 = load ptr, ptr %2, align 8
  %4 = getelementptr inbounds nuw %"class.icu_77::Calendar", ptr %3, i32 0, i32 7
  %5 = load i8, ptr %4, align 8
  %6 = lshr i8 %5, 4
  %7 = and i8 %6, 1
  %8 = trunc i8 %7 to i1
  %9 = zext i1 %8 to i8
  ret i8 %9
}

; Function Attrs: inlinehint mustprogress nounwind uwtable
define internal noundef signext i8 @_ZL9U_FAILURE10UErrorCode(i32 noundef %0) #2 {
  %2 = alloca i32, align 4
  store i32 %0, ptr %2, align 4, !tbaa !15
  %3 = load i32, ptr %2, align 4, !tbaa !15
  %4 = icmp sgt i32 %3, 0
  %5 = zext i1 %4 to i8
  ret i8 %5
}

; Function Attrs: mustprogress uwtable
define void @_ZN6icu_778Calendar15setTimeInMillisEdR10UErrorCode(ptr noundef nonnull align 8 dereferenceable(192) %0, double noundef %1, ptr noundef nonnull align 4 dereferenceable(4) %2) #1 align 2 {
  %4 = alloca ptr, align 8
  %5 = alloca double, align 8
  %6 = alloca ptr, align 8
  store ptr %0, ptr %4, align 8, !tbaa !37
  store double %1, ptr %5, align 8, !tbaa !97
  store ptr %2, ptr %6, align 8, !tbaa !22
  %7 = load ptr, ptr %4, align 8
  %8 = load ptr, ptr %6, align 8, !tbaa !22
  %9 = load i32, ptr %8, align 4, !tbaa !15
  %10 = call noundef signext i8 @_ZL9U_FAILURE10UErrorCode(i32 noundef %9)
  %11 = icmp ne i8 %10, 0
  br i1 %11, label %12, label %13

12:                                               ; preds = %3
  br label %65

13:                                               ; preds = %3
  %14 = load double, ptr %5, align 8, !tbaa !97
  %15 = fcmp ogt double %14, 0x43846A3EDDF8CD80
  br i1 %15, label %16, label %23

16:                                               ; preds = %13
  %17 = call noundef signext i8 @_ZNK6icu_778Calendar9isLenientEv(ptr noundef nonnull align 8 dereferenceable(192) %7)
  %18 = icmp ne i8 %17, 0
  br i1 %18, label %19, label %20

19:                                               ; preds = %16
  store double 0x43846A3EDDF8CD80, ptr %5, align 8, !tbaa !97
  br label %22

20:                                               ; preds = %16
  %21 = load ptr, ptr %6, align 8, !tbaa !22
  store i32 1, ptr %21, align 4, !tbaa !15
  br label %65

22:                                               ; preds = %19
  br label %41

23:                                               ; preds = %13
  %24 = load double, ptr %5, align 8, !tbaa !97
  %25 = fcmp olt double %24, 0xC384763B62073280
  br i1 %25, label %26, label %33

26:                                               ; preds = %23
  %27 = call noundef signext i8 @_ZNK6icu_778Calendar9isLenientEv(ptr noundef nonnull align 8 dereferenceable(192) %7)
  %28 = icmp ne i8 %27, 0
  br i1 %28, label %29, label %30

29:                                               ; preds = %26
  store double 0xC384763B62073280, ptr %5, align 8, !tbaa !97
  br label %32

30:                                               ; preds = %26
  %31 = load ptr, ptr %6, align 8, !tbaa !22
  store i32 1, ptr %31, align 4, !tbaa !15
  br label %65

32:                                               ; preds = %29
  br label %40

33:                                               ; preds = %23
  %34 = load double, ptr %5, align 8, !tbaa !97
  %35 = call signext i8 @uprv_isNaN_77(double noundef %34)
  %36 = icmp ne i8 %35, 0
  br i1 %36, label %37, label %39

37:                                               ; preds = %33
  %38 = load ptr, ptr %6, align 8, !tbaa !22
  store i32 1, ptr %38, align 4, !tbaa !15
  br label %65

39:                                               ; preds = %33
  br label %40

40:                                               ; preds = %39, %32
  br label %41

41:                                               ; preds = %40, %22
  %42 = load double, ptr %5, align 8, !tbaa !97
  %43 = getelementptr inbounds nuw %"class.icu_77::Calendar", ptr %7, i32 0, i32 5
  store double %42, ptr %43, align 8, !tbaa !63
  %44 = getelementptr inbounds nuw %"class.icu_77::Calendar", ptr %7, i32 0, i32 7
  %45 = load i8, ptr %44, align 8
  %46 = and i8 %45, -5
  %47 = or i8 %46, 0
  store i8 %47, ptr %44, align 8
  %48 = getelementptr inbounds nuw %"class.icu_77::Calendar", ptr %7, i32 0, i32 7
  %49 = load i8, ptr %48, align 8
  %50 = and i8 %49, -3
  %51 = or i8 %50, 0
  store i8 %51, ptr %48, align 8
  %52 = getelementptr inbounds nuw %"class.icu_77::Calendar", ptr %7, i32 0, i32 7
  %53 = load i8, ptr %52, align 8
  %54 = and i8 %53, -9
  %55 = or i8 %54, 8
  store i8 %55, ptr %52, align 8
  %56 = getelementptr inbounds nuw %"class.icu_77::Calendar", ptr %7, i32 0, i32 7
  %57 = load i8, ptr %56, align 8
  %58 = and i8 %57, -2
  %59 = or i8 %58, 1
  store i8 %59, ptr %56, align 8
  %60 = getelementptr inbounds nuw %"class.icu_77::Calendar", ptr %7, i32 0, i32 1
  %61 = getelementptr inbounds [24 x i32], ptr %60, i64 0, i64 0
  call void @llvm.memset.p0.i64(ptr align 8 %61, i8 0, i64 96, i1 false)
  %62 = getelementptr inbounds nuw %"class.icu_77::Calendar", ptr %7, i32 0, i32 2
  %63 = getelementptr inbounds [24 x i8], ptr %62, i64 0, i64 0
  call void @llvm.memset.p0.i64(ptr align 8 %63, i8 0, i64 24, i1 false)
  %64 = getelementptr inbounds nuw %"class.icu_77::Calendar", ptr %7, i32 0, i32 3
  store i8 2, ptr %64, align 8, !tbaa !54
  br label %65

65:                                               ; preds = %41, %37, %30, %20, %12
  ret void
}