; Function Attrs: mustprogress uwtable
define void @_ZN6icu_778Calendar15setTimeInMillisEdR10UErrorCode(ptr noundef nonnull align 8 captures(none) dereferenceable(192) %0, double noundef %1, ptr noundef nonnull align 4 captures(none) dereferenceable(4) %2) local_unnamed_addr #1 align 2 {
  %4 = load i32, ptr %2, align 4, !tbaa !13
  %5 = icmp slt i32 %4, 1
  br i1 %5, label %6, label %31

6:                                                ; preds = %3
  %7 = fcmp ogt double %1, 0x43846A3EDDF8CD80
  br i1 %7, label %8, label %13

8:                                                ; preds = %6
  %9 = getelementptr inbounds nuw i8, ptr %0, i64 152
  %10 = load i8, ptr %9, align 8
  %11 = and i8 %10, 16
  %.not12 = icmp eq i8 %11, 0
  br i1 %.not12, label %12, label %23

12:                                               ; preds = %8
  store i32 1, ptr %2, align 4, !tbaa !13
  br label %31

13:                                               ; preds = %6
  %14 = fcmp olt double %1, 0xC384763B62073280
  br i1 %14, label %15, label %20

15:                                               ; preds = %13
  %16 = getelementptr inbounds nuw i8, ptr %0, i64 152
  %17 = load i8, ptr %16, align 8
  %18 = and i8 %17, 16
  %.not11 = icmp eq i8 %18, 0
  br i1 %.not11, label %19, label %23

19:                                               ; preds = %15
  store i32 1, ptr %2, align 4, !tbaa !13
  br label %31

20:                                               ; preds = %13
  %21 = tail call signext i8 @uprv_isNaN_77(double noundef %1)
  %.not10 = icmp eq i8 %21, 0
  br i1 %.not10, label %._crit_edge, label %22

._crit_edge:                                      ; preds = %20
  %.phi.trans.insert = getelementptr inbounds nuw i8, ptr %0, i64 152
  %.pre = load i8, ptr %.phi.trans.insert, align 8
  br label %23

22:                                               ; preds = %20
  store i32 1, ptr %2, align 4, !tbaa !13
  br label %31

23:                                               ; preds = %._crit_edge, %15, %8
  %24 = phi i8 [ %.pre, %._crit_edge ], [ %10, %8 ], [ %17, %15 ]
  %.0 = phi double [ %1, %._crit_edge ], [ 0x43846A3EDDF8CD80, %8 ], [ 0xC384763B62073280, %15 ]
  %25 = getelementptr inbounds nuw i8, ptr %0, i64 136
  store double %.0, ptr %25, align 8, !tbaa !53
  %26 = getelementptr inbounds nuw i8, ptr %0, i64 152
  %27 = and i8 %24, -16
  %28 = or disjoint i8 %27, 9
  store i8 %28, ptr %26, align 8
  %29 = getelementptr inbounds nuw i8, ptr %0, i64 8
  %30 = getelementptr inbounds nuw i8, ptr %0, i64 128
  tail call void @llvm.memset.p0.i64(ptr noundef nonnull align 8 dereferenceable(120) %29, i8 0, i64 120, i1 false)
  store i8 2, ptr %30, align 8, !tbaa !40
  br label %31

31:                                               ; preds = %3, %23, %22, %19, %12
  ret void
}